(lp0
(I0
I0
I0
tp1
a(I255
I128
I0
tp2
a(I255
I128
I128
tp3
a(I128
I0
I128
tp4
a(I0
I0
I128
tp5
a(I0
I128
I0
tp6
a(I128
I0
I0
tp7
a(I128
I64
I0
tp8
a(I64
I128
I255
tp9
a(I128
I128
I128
tp10
a(I255
I255
I255
tp11
a.